target datalayout = "e-m:e-p270:32:32-p271:32:32-p272:64:64-i64:64-i128:128-f80:128-n8:16:32:64-S128"
target triple = "x86_64-pc-linux-gnu"

%struct._zval_struct = type { %union._zend_value, %union.anon, %union.anon.3 }
%union._zend_value = type { i64 }
%union.anon = type { i32 }
%union.anon.3 = type { i32 }
%struct._zend_op_array = type { i8, [3 x i8], i32, ptr, ptr, ptr, i32, i32, ptr, ptr, ptr, ptr, i32, ptr, i32, i32, i32, ptr, ptr, ptr, ptr, ptr, i32, i32, ptr, ptr, ptr, i32, i32, i32, i32, ptr, ptr, [6 x ptr] }
%struct._zend_op = type { ptr, %union._znode_op, %union._znode_op, %union._znode_op, i32, i32, i8, i8, i8, i8 }
%union._znode_op = type { i32 }

; Function Attrs: nounwind uwtable
define internal void @zend_redo_pass_two(ptr noundef %0) #0 {
  %2 = alloca ptr, align 8
  %3 = alloca ptr, align 8
  %4 = alloca ptr, align 8
  store ptr %0, ptr %2, align 8, !tbaa !98
  call void @llvm.lifetime.start.p0(i64 8, ptr %3) #13
  call void @llvm.lifetime.start.p0(i64 8, ptr %4) #13
  %5 = load ptr, ptr %2, align 8, !tbaa !98
  %6 = getelementptr inbounds nuw %struct._zend_op_array, ptr %5, i32 0, i32 2
  %7 = load i32, ptr %6, align 4, !tbaa !126
  %8 = and i32 %7, 33554432
  %9 = icmp eq i32 %8, 0
  call void @llvm.assume(i1 %9)
  %10 = load ptr, ptr %2, align 8, !tbaa !98
  %11 = getelementptr inbounds nuw %struct._zend_op_array, ptr %10, i32 0, i32 29
  %12 = load i32, ptr %11, align 8, !tbaa !114
  %13 = icmp ne i32 %12, 0
  br i1 %13, label %14, label %69

14:                                               ; preds = %1
  %15 = load ptr, ptr %2, align 8, !tbaa !98
  %16 = getelementptr inbounds nuw %struct._zend_op_array, ptr %15, i32 0, i32 17
  %17 = load ptr, ptr %16, align 8, !tbaa !119
  %18 = load ptr, ptr %2, align 8, !tbaa !98
  %19 = getelementptr inbounds nuw %struct._zend_op_array, ptr %18, i32 0, i32 16
  %20 = load i32, ptr %19, align 8, !tbaa !120
  %21 = zext i32 %20 to i64
  %22 = mul i64 32, %21
  %23 = add i64 %22, 15
  %24 = and i64 %23, -16
  %25 = load ptr, ptr %2, align 8, !tbaa !98
  %26 = getelementptr inbounds nuw %struct._zend_op_array, ptr %25, i32 0, i32 29
  %27 = load i32, ptr %26, align 8, !tbaa !114
  %28 = sext i32 %27 to i64
  %29 = mul i64 16, %28
  %30 = add i64 %24, %29
  %31 = call ptr @_erealloc(ptr noundef %17, i64 noundef %30) #16
  %32 = load ptr, ptr %2, align 8, !tbaa !98
  %33 = getelementptr inbounds nuw %struct._zend_op_array, ptr %32, i32 0, i32 17
  store ptr %31, ptr %33, align 8, !tbaa !119
  %34 = load ptr, ptr %2, align 8, !tbaa !98
  %35 = getelementptr inbounds nuw %struct._zend_op_array, ptr %34, i32 0, i32 17
  %36 = load ptr, ptr %35, align 8, !tbaa !119
  %37 = load ptr, ptr %2, align 8, !tbaa !98
  %38 = getelementptr inbounds nuw %struct._zend_op_array, ptr %37, i32 0, i32 16
  %39 = load i32, ptr %38, align 8, !tbaa !120
  %40 = zext i32 %39 to i64
  %41 = mul i64 32, %40
  %42 = add i64 %41, 15
  %43 = and i64 %42, -16
  %44 = getelementptr inbounds nuw i8, ptr %36, i64 %43
  %45 = load ptr, ptr %2, align 8, !tbaa !98
  %46 = getelementptr inbounds nuw %struct._zend_op_array, ptr %45, i32 0, i32 31
  %47 = load ptr, ptr %46, align 8, !tbaa !106
  %48 = load ptr, ptr %2, align 8, !tbaa !98
  %49 = getelementptr inbounds nuw %struct._zend_op_array, ptr %48, i32 0, i32 29
  %50 = load i32, ptr %49, align 8, !tbaa !114
  %51 = sext i32 %50 to i64
  %52 = mul i64 16, %51
  call void @llvm.memcpy.p0.p0.i64(ptr align 1 %44, ptr align 8 %47, i64 %52, i1 false)
  %53 = load ptr, ptr %2, align 8, !tbaa !98
  %54 = getelementptr inbounds nuw %struct._zend_op_array, ptr %53, i32 0, i32 31
  %55 = load ptr, ptr %54, align 8, !tbaa !106
  call void @_efree(ptr noundef %55)
  %56 = load ptr, ptr %2, align 8, !tbaa !98
  %57 = getelementptr inbounds nuw %struct._zend_op_array, ptr %56, i32 0, i32 17
  %58 = load ptr, ptr %57, align 8, !tbaa !119
  %59 = load ptr, ptr %2, align 8, !tbaa !98
  %60 = getelementptr inbounds nuw %struct._zend_op_array, ptr %59, i32 0, i32 16
  %61 = load i32, ptr %60, align 8, !tbaa !120
  %62 = zext i32 %61 to i64
  %63 = mul i64 32, %62
  %64 = add i64 %63, 15
  %65 = and i64 %64, -16
  %66 = getelementptr inbounds nuw i8, ptr %58, i64 %65
  %67 = load ptr, ptr %2, align 8, !tbaa !98
  %68 = getelementptr inbounds nuw %struct._zend_op_array, ptr %67, i32 0, i32 31
  store ptr %66, ptr %68, align 8, !tbaa !106
  br label %81

69:                                               ; preds = %1
  %70 = load ptr, ptr %2, align 8, !tbaa !98
  %71 = getelementptr inbounds nuw %struct._zend_op_array, ptr %70, i32 0, i32 31
  %72 = load ptr, ptr %71, align 8, !tbaa !106
  %73 = icmp ne ptr %72, null
  br i1 %73, label %74, label %78

74:                                               ; preds = %69
  %75 = load ptr, ptr %2, align 8, !tbaa !98
  %76 = getelementptr inbounds nuw %struct._zend_op_array, ptr %75, i32 0, i32 31
  %77 = load ptr, ptr %76, align 8, !tbaa !106
  call void @_efree(ptr noundef %77)
  br label %78

78:                                               ; preds = %74, %69
  %79 = load ptr, ptr %2, align 8, !tbaa !98
  %80 = getelementptr inbounds nuw %struct._zend_op_array, ptr %79, i32 0, i32 31
  store ptr null, ptr %80, align 8, !tbaa !106
  br label %81

81:                                               ; preds = %78, %14
  %82 = load ptr, ptr %2, align 8, !tbaa !98
  %83 = getelementptr inbounds nuw %struct._zend_op_array, ptr %82, i32 0, i32 17
  %84 = load ptr, ptr %83, align 8, !tbaa !119
  store ptr %84, ptr %3, align 8, !tbaa !100
  %85 = load ptr, ptr %3, align 8, !tbaa !100
  %86 = load ptr, ptr %2, align 8, !tbaa !98
  %87 = getelementptr inbounds nuw %struct._zend_op_array, ptr %86, i32 0, i32 16
  %88 = load i32, ptr %87, align 8, !tbaa !120
  %89 = zext i32 %88 to i64
  %90 = getelementptr inbounds nuw %struct._zend_op, ptr %85, i64 %89
  store ptr %90, ptr %4, align 8, !tbaa !100
  br label %91

91:                                               ; preds = %218, %81
  %92 = load ptr, ptr %3, align 8, !tbaa !100
  %93 = load ptr, ptr %4, align 8, !tbaa !100
  %94 = icmp ult ptr %92, %93
  br i1 %94, label %95, label %222

95:                                               ; preds = %91
  %96 = load ptr, ptr %3, align 8, !tbaa !100
  %97 = getelementptr inbounds nuw %struct._zend_op, ptr %96, i32 0, i32 7
  %98 = load i8, ptr %97, align 1, !tbaa !101
  %99 = zext i8 %98 to i32
  %100 = icmp eq i32 %99, 1
  br i1 %100, label %101, label %120

101:                                              ; preds = %95
  br label %102

102:                                              ; preds = %101
  %103 = load ptr, ptr %2, align 8, !tbaa !98
  %104 = getelementptr inbounds nuw %struct._zend_op_array, ptr %103, i32 0, i32 31
  %105 = load ptr, ptr %104, align 8, !tbaa !106
  %106 = load ptr, ptr %3, align 8, !tbaa !100
  %107 = getelementptr inbounds nuw %struct._zend_op, ptr %106, i32 0, i32 1
  %108 = load i32, ptr %107, align 8, !tbaa !17
  %109 = zext i32 %108 to i64
  %110 = getelementptr inbounds nuw %struct._zval_struct, ptr %105, i64 %109
  %111 = load ptr, ptr %3, align 8, !tbaa !100
  %112 = ptrtoint ptr %110 to i64
  %113 = ptrtoint ptr %111 to i64
  %114 = sub i64 %112, %113
  %115 = trunc i64 %114 to i32
  %116 = load ptr, ptr %3, align 8, !tbaa !100
  %117 = getelementptr inbounds nuw %struct._zend_op, ptr %116, i32 0, i32 1
  store i32 %115, ptr %117, align 8, !tbaa !17
  br label %118

118:                                              ; preds = %102
  br label %119

119:                                              ; preds = %118
  br label %120

120:                                              ; preds = %119, %95
  %121 = load ptr, ptr %3, align 8, !tbaa !100
  %122 = getelementptr inbounds nuw %struct._zend_op, ptr %121, i32 0, i32 8
  %123 = load i8, ptr %122, align 2, !tbaa !103
  %124 = zext i8 %123 to i32
  %125 = icmp eq i32 %124, 1
  br i1 %125, label %126, label %145

126:                                              ; preds = %120
  br label %127

127:                                              ; preds = %126
  %128 = load ptr, ptr %2, align 8, !tbaa !98
  %129 = getelementptr inbounds nuw %struct._zend_op_array, ptr %128, i32 0, i32 31
  %130 = load ptr, ptr %129, align 8, !tbaa !106
  %131 = load ptr, ptr %3, align 8, !tbaa !100
  %132 = getelementptr inbounds nuw %struct._zend_op, ptr %131, i32 0, i32 2
  %133 = load i32, ptr %132, align 4, !tbaa !17
  %134 = zext i32 %133 to i64
  %135 = getelementptr inbounds nuw %struct._zval_struct, ptr %130, i64 %134
  %136 = load ptr, ptr %3, align 8, !tbaa !100
  %137 = ptrtoint ptr %135 to i64
  %138 = ptrtoint ptr %136 to i64
  %139 = sub i64 %137, %138
  %140 = trunc i64 %139 to i32
  %141 = load ptr, ptr %3, align 8, !tbaa !100
  %142 = getelementptr inbounds nuw %struct._zend_op, ptr %141, i32 0, i32 2
  store i32 %140, ptr %142, align 4, !tbaa !17
  br label %143

143:                                              ; preds = %127
  br label %144

144:                                              ; preds = %143
  br label %145

145:                                              ; preds = %144, %120
  %146 = load ptr, ptr %3, align 8, !tbaa !100
  %147 = getelementptr inbounds nuw %struct._zend_op, ptr %146, i32 0, i32 6
  %148 = load i8, ptr %147, align 4, !tbaa !102
  %149 = zext i8 %148 to i32
  switch i32 %149, label %218 [
    i32 16, label %150
    i32 17, label %150
    i32 18, label %150
    i32 19, label %150
    i32 20, label %150
    i32 21, label %150
    i32 48, label %150
    i32 196, label %150
    i32 154, label %150
    i32 114, label %150
    i32 115, label %150
    i32 148, label %150
    i32 180, label %150
    i32 138, label %150
    i32 123, label %150
    i32 122, label %150
    i32 189, label %150
    i32 194, label %150
  ]

150:                                              ; preds = %145, %145, %145, %145, %145, %145, %145, %145, %145, %145, %145, %145, %145, %145, %145, %145, %145, %145
  %151 = load ptr, ptr %3, align 8, !tbaa !100
  %152 = getelementptr inbounds nuw %struct._zend_op, ptr %151, i32 0, i32 9
  %153 = load i8, ptr %152, align 1, !tbaa !104
  %154 = zext i8 %153 to i32
  %155 = and i32 %154, 2
  %156 = icmp ne i32 %155, 0
  br i1 %156, label %157, label %217

157:                                              ; preds = %150
  %158 = load ptr, ptr %3, align 8, !tbaa !100
  %159 = getelementptr inbounds %struct._zend_op, ptr %158, i64 1
  %160 = load ptr, ptr %4, align 8, !tbaa !100
  %161 = icmp ult ptr %159, %160
  br i1 %161, label %162, label %216

162:                                              ; preds = %157
  %163 = load ptr, ptr %3, align 8, !tbaa !100
  %164 = getelementptr inbounds %struct._zend_op, ptr %163, i64 1
  %165 = getelementptr inbounds nuw %struct._zend_op, ptr %164, i32 0, i32 6
  %166 = load i8, ptr %165, align 4, !tbaa !102
  %167 = zext i8 %166 to i32
  %168 = icmp eq i32 %167, 43
  br i1 %168, label %169, label %188

169:                                              ; preds = %162
  %170 = load ptr, ptr %3, align 8, !tbaa !100
  %171 = getelementptr inbounds %struct._zend_op, ptr %170, i64 1
  %172 = getelementptr inbounds nuw %struct._zend_op, ptr %171, i32 0, i32 7
  %173 = load i8, ptr %172, align 1, !tbaa !101
  %174 = zext i8 %173 to i32
  %175 = icmp eq i32 %174, 2
  br i1 %175, label %176, label %188

176:                                              ; preds = %169
  %177 = load ptr, ptr %3, align 8, !tbaa !100
  %178 = getelementptr inbounds %struct._zend_op, ptr %177, i64 1
  %179 = getelementptr inbounds nuw %struct._zend_op, ptr %178, i32 0, i32 1
  %180 = load i32, ptr %179, align 8, !tbaa !17
  %181 = load ptr, ptr %3, align 8, !tbaa !100
  %182 = getelementptr inbounds nuw %struct._zend_op, ptr %181, i32 0, i32 3
  %183 = load i32, ptr %182, align 8, !tbaa !17
  %184 = icmp eq i32 %180, %183
  br i1 %184, label %185, label %188

185:                                              ; preds = %176
  %186 = load ptr, ptr %3, align 8, !tbaa !100
  %187 = getelementptr inbounds nuw %struct._zend_op, ptr %186, i32 0, i32 9
  store i8 18, ptr %187, align 1, !tbaa !104
  br label %215

188:                                              ; preds = %176, %169, %162
  %189 = load ptr, ptr %3, align 8, !tbaa !100
  %190 = getelementptr inbounds %struct._zend_op, ptr %189, i64 1
  %191 = getelementptr inbounds nuw %struct._zend_op, ptr %190, i32 0, i32 6
  %192 = load i8, ptr %191, align 4, !tbaa !102
  %193 = zext i8 %192 to i32
  %194 = icmp eq i32 %193, 44
  br i1 %194, label %195, label %214

195:                                              ; preds = %188
  %196 = load ptr, ptr %3, align 8, !tbaa !100
  %197 = getelementptr inbounds %struct._zend_op, ptr %196, i64 1
  %198 = getelementptr inbounds nuw %struct._zend_op, ptr %197, i32 0, i32 7
  %199 = load i8, ptr %198, align 1, !tbaa !101
  %200 = zext i8 %199 to i32
  %201 = icmp eq i32 %200, 2
  br i1 %201, label %202, label %214

202:                                              ; preds = %195
  %203 = load ptr, ptr %3, align 8, !tbaa !100
  %204 = getelementptr inbounds %struct._zend_op, ptr %203, i64 1
  %205 = getelementptr inbounds nuw %struct._zend_op, ptr %204, i32 0, i32 1
  %206 = load i32, ptr %205, align 8, !tbaa !17
  %207 = load ptr, ptr %3, align 8, !tbaa !100
  %208 = getelementptr inbounds nuw %struct._zend_op, ptr %207, i32 0, i32 3
  %209 = load i32, ptr %208, align 8, !tbaa !17
  %210 = icmp eq i32 %206, %209
  br i1 %210, label %211, label %214

211:                                              ; preds = %202
  %212 = load ptr, ptr %3, align 8, !tbaa !100
  %213 = getelementptr inbounds nuw %struct._zend_op, ptr %212, i32 0, i32 9
  store i8 34, ptr %213, align 1, !tbaa !104
  br label %214

214:                                              ; preds = %211, %202, %195, %188
  br label %215

215:                                              ; preds = %214, %185
  br label %216

216:                                              ; preds = %215, %157
  br label %217

217:                                              ; preds = %216, %150
  br label %218

218:                                              ; preds = %145, %217
  %219 = load ptr, ptr %3, align 8, !tbaa !100
  call void @zend_vm_set_opcode_handler(ptr noundef %219)
  %220 = load ptr, ptr %3, align 8, !tbaa !100
  %221 = getelementptr inbounds nuw %struct._zend_op, ptr %220, i32 1
  store ptr %221, ptr %3, align 8, !tbaa !100
  br label %91

222:                                              ; preds = %91
  %223 = load ptr, ptr %2, align 8, !tbaa !98
  %224 = getelementptr inbounds nuw %struct._zend_op_array, ptr %223, i32 0, i32 2
  %225 = load i32, ptr %224, align 4, !tbaa !126
  %226 = or i32 %225, 33554432
  store i32 %226, ptr %224, align 4, !tbaa !126
  call void @llvm.lifetime.end.p0(i64 8, ptr %4) #13
  call void @llvm.lifetime.end.p0(i64 8, ptr %3) #13
  ret void
}