; Function Attrs: nounwind uwtable
define internal fastcc void @zend_redo_pass_two(ptr noundef captures(none) %0) unnamed_addr #0 {
  %2 = getelementptr inbounds nuw i8, ptr %0, i64 4
  %3 = load i32, ptr %2, align 4, !tbaa !104
  %4 = and i32 %3, 33554432
  %5 = icmp eq i32 %4, 0
  tail call void @llvm.assume(i1 %5)
  %6 = getelementptr inbounds nuw i8, ptr %0, i64 184
  %7 = load i32, ptr %6, align 8, !tbaa !95
  %.not = icmp eq i32 %7, 0
  br i1 %.not, label %34, label %8

8:                                                ; preds = %1
  %9 = getelementptr inbounds nuw i8, ptr %0, i64 104
  %10 = load ptr, ptr %9, align 8, !tbaa !98
  %11 = getelementptr inbounds nuw i8, ptr %0, i64 96
  %12 = load i32, ptr %11, align 8, !tbaa !99
  %13 = zext i32 %12 to i64
  %14 = shl nuw nsw i64 %13, 5
  %15 = sext i32 %7 to i64
  %16 = shl nsw i64 %15, 4
  %17 = add nsw i64 %14, %16
  %18 = tail call ptr @_erealloc(ptr noundef %10, i64 noundef %17) #21
  store ptr %18, ptr %9, align 8, !tbaa !98
  %19 = load i32, ptr %11, align 8, !tbaa !99
  %20 = zext i32 %19 to i64
  %21 = shl nuw nsw i64 %20, 5
  %22 = getelementptr inbounds nuw i8, ptr %18, i64 %21
  %23 = getelementptr inbounds nuw i8, ptr %0, i64 192
  %24 = load ptr, ptr %23, align 8, !tbaa !87
  %25 = load i32, ptr %6, align 8, !tbaa !95
  %26 = sext i32 %25 to i64
  %27 = shl nsw i64 %26, 4
  tail call void @llvm.memcpy.p0.p0.i64(ptr align 1 %22, ptr align 8 %24, i64 %27, i1 false)
  %28 = load ptr, ptr %23, align 8, !tbaa !87
  tail call void @_efree(ptr noundef %28) #20
  %29 = load ptr, ptr %9, align 8, !tbaa !98
  %30 = load i32, ptr %11, align 8, !tbaa !99
  %31 = zext i32 %30 to i64
  %32 = shl nuw nsw i64 %31, 5
  %33 = getelementptr inbounds nuw i8, ptr %29, i64 %32
  store ptr %33, ptr %23, align 8, !tbaa !87
  br label %39

34:                                               ; preds = %1
  %35 = getelementptr inbounds nuw i8, ptr %0, i64 192
  %36 = load ptr, ptr %35, align 8, !tbaa !87
  %.not53 = icmp eq ptr %36, null
  br i1 %.not53, label %38, label %37

37:                                               ; preds = %34
  tail call void @_efree(ptr noundef nonnull %36) #20
  br label %38

38:                                               ; preds = %37, %34
  store ptr null, ptr %35, align 8, !tbaa !87
  %.phi.trans.insert = getelementptr inbounds nuw i8, ptr %0, i64 104
  %.pre = load ptr, ptr %.phi.trans.insert, align 8, !tbaa !98
  %.phi.trans.insert58 = getelementptr inbounds nuw i8, ptr %0, i64 96
  %.pre59 = load i32, ptr %.phi.trans.insert58, align 8, !tbaa !99
  %.pre60 = zext i32 %.pre59 to i64
  br label %39

39:                                               ; preds = %38, %8
  %.pre-phi = phi i64 [ %.pre60, %38 ], [ %31, %8 ]
  %40 = phi i32 [ %.pre59, %38 ], [ %30, %8 ]
  %41 = phi ptr [ %.pre, %38 ], [ %29, %8 ]
  %42 = getelementptr inbounds nuw %struct._zend_op, ptr %41, i64 %.pre-phi
  %.not57 = icmp eq i32 %40, 0
  br i1 %.not57, label %._crit_edge, label %.lr.ph

.lr.ph:                                           ; preds = %39
  %43 = getelementptr inbounds nuw i8, ptr %0, i64 192
  br label %44

44:                                               ; preds = %.lr.ph, %.thread
  %.056 = phi ptr [ %41, %.lr.ph ], [ %104, %.thread ]
  %45 = getelementptr inbounds nuw i8, ptr %.056, i64 29
  %46 = load i8, ptr %45, align 1, !tbaa !82
  %47 = icmp eq i8 %46, 1
  br i1 %47, label %48, label %58

48:                                               ; preds = %44
  %49 = load ptr, ptr %43, align 8, !tbaa !87
  %50 = getelementptr inbounds nuw i8, ptr %.056, i64 8
  %51 = load i32, ptr %50, align 8, !tbaa !20
  %52 = zext i32 %51 to i64
  %53 = getelementptr inbounds nuw %struct._zval_struct, ptr %49, i64 %52
  %54 = ptrtoint ptr %53 to i64
  %55 = ptrtoint ptr %.056 to i64
  %56 = sub i64 %54, %55
  %57 = trunc i64 %56 to i32
  store i32 %57, ptr %50, align 8, !tbaa !20
  br label %58

58:                                               ; preds = %48, %44
  %59 = getelementptr inbounds nuw i8, ptr %.056, i64 30
  %60 = load i8, ptr %59, align 2, !tbaa !84
  %61 = icmp eq i8 %60, 1
  br i1 %61, label %62, label %72

62:                                               ; preds = %58
  %63 = load ptr, ptr %43, align 8, !tbaa !87
  %64 = getelementptr inbounds nuw i8, ptr %.056, i64 12
  %65 = load i32, ptr %64, align 4, !tbaa !20
  %66 = zext i32 %65 to i64
  %67 = getelementptr inbounds nuw %struct._zval_struct, ptr %63, i64 %66
  %68 = ptrtoint ptr %67 to i64
  %69 = ptrtoint ptr %.056 to i64
  %70 = sub i64 %68, %69
  %71 = trunc i64 %70 to i32
  store i32 %71, ptr %64, align 4, !tbaa !20
  br label %72

72:                                               ; preds = %62, %58
  %73 = getelementptr inbounds nuw i8, ptr %.056, i64 28
  %74 = load i8, ptr %73, align 4, !tbaa !83
  switch i8 %74, label %.thread [
    i8 16, label %75
    i8 17, label %75
    i8 18, label %75
    i8 19, label %75
    i8 20, label %75
    i8 21, label %75
    i8 48, label %75
    i8 -60, label %75
    i8 -102, label %75
    i8 114, label %75
    i8 115, label %75
    i8 -108, label %75
    i8 -76, label %75
    i8 -118, label %75
    i8 123, label %75
    i8 122, label %75
    i8 -67, label %75
    i8 -62, label %75
  ]

75:                                               ; preds = %72, %72, %72, %72, %72, %72, %72, %72, %72, %72, %72, %72, %72, %72, %72, %72, %72, %72
  %76 = getelementptr inbounds nuw i8, ptr %.056, i64 31
  %77 = load i8, ptr %76, align 1, !tbaa !85
  %78 = and i8 %77, 2
  %.not54 = icmp ne i8 %78, 0
  %79 = getelementptr inbounds nuw i8, ptr %.056, i64 32
  %80 = icmp ult ptr %79, %42
  %or.cond = select i1 %.not54, i1 %80, i1 false
  br i1 %or.cond, label %81, label %.thread

81:                                               ; preds = %75
  %82 = getelementptr inbounds nuw i8, ptr %.056, i64 60
  %83 = load i8, ptr %82, align 4, !tbaa !83
  switch i8 %83, label %.thread [
    i8 43, label %84
    i8 44, label %94
  ]

84:                                               ; preds = %81
  %85 = getelementptr inbounds nuw i8, ptr %.056, i64 61
  %86 = load i8, ptr %85, align 1, !tbaa !82
  %87 = icmp eq i8 %86, 2
  br i1 %87, label %88, label %.thread

88:                                               ; preds = %84
  %89 = getelementptr inbounds nuw i8, ptr %.056, i64 40
  %90 = load i32, ptr %89, align 8, !tbaa !20
  %91 = getelementptr inbounds nuw i8, ptr %.056, i64 16
  %92 = load i32, ptr %91, align 8, !tbaa !20
  %93 = icmp eq i32 %90, %92
  br i1 %93, label %.thread.sink.split, label %.thread

94:                                               ; preds = %81
  %95 = getelementptr inbounds nuw i8, ptr %.056, i64 61
  %96 = load i8, ptr %95, align 1, !tbaa !82
  %97 = icmp eq i8 %96, 2
  br i1 %97, label %98, label %.thread

98:                                               ; preds = %94
  %99 = getelementptr inbounds nuw i8, ptr %.056, i64 40
  %100 = load i32, ptr %99, align 8, !tbaa !20
  %101 = getelementptr inbounds nuw i8, ptr %.056, i64 16
  %102 = load i32, ptr %101, align 8, !tbaa !20
  %103 = icmp eq i32 %100, %102
  br i1 %103, label %.thread.sink.split, label %.thread

.thread.sink.split:                               ; preds = %98, %88
  %.sink = phi i8 [ 18, %88 ], [ 34, %98 ]
  store i8 %.sink, ptr %76, align 1, !tbaa !85
  br label %.thread

.thread:                                          ; preds = %.thread.sink.split, %81, %84, %88, %75, %98, %94, %72
  tail call void @zend_vm_set_opcode_handler(ptr noundef nonnull %.056) #20
  %104 = getelementptr inbounds nuw i8, ptr %.056, i64 32
  %105 = icmp ult ptr %104, %42
  br i1 %105, label %44, label %._crit_edge

._crit_edge:                                      ; preds = %.thread, %39
  %106 = load i32, ptr %2, align 4, !tbaa !104
  %107 = or i32 %106, 33554432
  store i32 %107, ptr %2, align 4, !tbaa !104
  ret void
}